; ModuleID = 'source-C-CXX/25/1208.c'
source_filename = "source-C-CXX/25/1208.c"
target datalayout = "e-m:e-p270:32:32-p271:32:32-p272:64:64-i64:64-f80:128-n8:16:32:64-S128"
target triple = "x86_64-pc-linux-gnu"

; Function Attrs: nounwind sspstrong uwtable
define dso_local i32 @main() local_unnamed_addr #0 {
  %1 = alloca [101 x i8], align 16
  %2 = getelementptr inbounds [101 x i8], [101 x i8]* %1, i64 0, i64 0
  call void @llvm.lifetime.start.p0i8(i64 101, i8* nonnull %2) #4
  %3 = call i32 (i8*, ...) bitcast (i32 (...)* @gets to i32 (i8*, ...)*)(i8* nonnull %2) #4
  %4 = load i8, i8* %2, align 16, !tbaa !5
  %5 = icmp eq i8 %4, 0
  br i1 %5, label %34, label %6

6:                                                ; preds = %0, %30
  %7 = phi i64 [ %11, %30 ], [ 0, %0 ]
  %8 = phi i64 [ %33, %30 ], [ 1, %0 ]
  %9 = phi i8 [ %31, %30 ], [ %4, %0 ]
  %10 = phi i8* [ %12, %30 ], [ %2, %0 ]
  %11 = add nuw i64 %7, 1
  %12 = getelementptr inbounds [101 x i8], [101 x i8]* %1, i64 0, i64 %11
  %13 = icmp eq i8 %9, 32
  br i1 %13, label %17, label %28

14:                                               ; preds = %20
  %15 = load i8, i8* %10, align 1, !tbaa !5
  %16 = icmp eq i8 %15, 32
  br i1 %16, label %17, label %28

17:                                               ; preds = %6, %14
  %18 = load i8, i8* %12, align 1, !tbaa !5
  %19 = icmp eq i8 %18, 32
  br i1 %19, label %20, label %30

20:                                               ; preds = %17, %20
  %21 = phi i64 [ %23, %20 ], [ %8, %17 ]
  %22 = phi i8* [ %24, %20 ], [ %12, %17 ]
  %23 = add nuw i64 %21, 1
  %24 = getelementptr inbounds [101 x i8], [101 x i8]* %1, i64 0, i64 %23
  %25 = load i8, i8* %24, align 1, !tbaa !5
  store i8 %25, i8* %22, align 1, !tbaa !5
  %26 = load i8, i8* %24, align 1, !tbaa !5
  %27 = icmp eq i8 %26, 0
  br i1 %27, label %14, label %20, !llvm.loop !8

28:                                               ; preds = %14, %6
  %29 = load i8, i8* %12, align 1, !tbaa !5
  br label %30

30:                                               ; preds = %17, %28
  %31 = phi i8 [ %29, %28 ], [ %18, %17 ]
  %32 = icmp eq i8 %31, 0
  %33 = add nuw i64 %8, 1
  br i1 %32, label %34, label %6, !llvm.loop !10

34:                                               ; preds = %30, %0
  %35 = call i32 @puts(i8* nonnull %2)
  call void @llvm.lifetime.end.p0i8(i64 101, i8* nonnull %2) #4
  ret i32 0
}

; Function Attrs: argmemonly mustprogress nofree nosync nounwind willreturn
declare void @llvm.lifetime.start.p0i8(i64 immarg, i8* nocapture) #1

declare i32 @gets(...) local_unnamed_addr #2

; Function Attrs: nofree nounwind
declare noundef i32 @puts(i8* nocapture noundef readonly) local_unnamed_addr #3

; Function Attrs: argmemonly mustprogress nofree nosync nounwind willreturn
declare void @llvm.lifetime.end.p0i8(i64 immarg, i8* nocapture) #1


!llvm.module.flags = !{!0, !1, !2, !3}
!llvm.ident = !{!4}

!0 = !{i32 1, !"wchar_size", i32 4}
!1 = !{i32 7, !"PIC Level", i32 2}
!2 = !{i32 7, !"PIE Level", i32 2}
!3 = !{i32 7, !"uwtable", i32 1}
!4 = !{!"clang version 13.0.0"}
!5 = !{!6, !6, i64 0}
!6 = !{!"omnipotent char", !7, i64 0}
!7 = !{!"Simple C/C++ TBAA"}
!8 = distinct !{!8, !9}
!9 = !{!"llvm.loop.mustprogress"}
!10 = distinct !{!10, !9}
